; Function Attrs: nounwind uwtable
define ptr @l_Array_forIn_x27Unsafe_loop___at_Lean_Widget_goalToInteractive___spec__4___boxed(ptr noundef readonly captures(none) %0) local_unnamed_addr #1 {
  %2 = load ptr, ptr %0, align 8, !tbaa !4
  %3 = getelementptr inbounds nuw i8, ptr %0, i64 8
  %4 = load ptr, ptr %3, align 8, !tbaa !4
  %5 = getelementptr inbounds nuw i8, ptr %0, i64 16
  %6 = load ptr, ptr %5, align 8, !tbaa !4
  %7 = getelementptr inbounds nuw i8, ptr %0, i64 24
  %8 = load ptr, ptr %7, align 8, !tbaa !4
  %9 = getelementptr inbounds nuw i8, ptr %0, i64 32
  %10 = load ptr, ptr %9, align 8, !tbaa !4
  %11 = getelementptr inbounds nuw i8, ptr %0, i64 40
  %12 = load ptr, ptr %11, align 8, !tbaa !4
  %13 = getelementptr inbounds nuw i8, ptr %0, i64 48
  %14 = load ptr, ptr %13, align 8, !tbaa !4
  %15 = getelementptr inbounds nuw i8, ptr %0, i64 56
  %16 = load ptr, ptr %15, align 8, !tbaa !4
  %17 = getelementptr inbounds nuw i8, ptr %0, i64 64
  %18 = load ptr, ptr %17, align 8, !tbaa !4
  %19 = getelementptr inbounds nuw i8, ptr %0, i64 72
  %20 = load ptr, ptr %19, align 8, !tbaa !4
  %21 = getelementptr inbounds nuw i8, ptr %0, i64 80
  %22 = load ptr, ptr %21, align 8, !tbaa !4
  %23 = getelementptr inbounds nuw i8, ptr %0, i64 88
  %24 = load ptr, ptr %23, align 8, !tbaa !4
  %25 = getelementptr inbounds nuw i8, ptr %0, i64 96
  %26 = load ptr, ptr %25, align 8, !tbaa !4
  %27 = getelementptr inbounds nuw i8, ptr %0, i64 104
  %28 = load ptr, ptr %27, align 8, !tbaa !4
  %29 = getelementptr inbounds nuw i8, ptr %0, i64 112
  %30 = load ptr, ptr %29, align 8, !tbaa !4
  %31 = getelementptr inbounds nuw i8, ptr %0, i64 120
  %32 = load ptr, ptr %31, align 8, !tbaa !4
  %33 = getelementptr inbounds nuw i8, ptr %0, i64 128
  %34 = load ptr, ptr %33, align 8, !tbaa !4
  %35 = getelementptr inbounds nuw i8, ptr %0, i64 136
  %36 = load ptr, ptr %35, align 8, !tbaa !4
  %37 = ptrtoint ptr %2 to i64
  %38 = lshr i64 %37, 1
  %39 = trunc i64 %38 to i8
  %40 = and i64 %37, 1
  %.not = icmp eq i64 %40, 0
  br i1 %.not, label %41, label %lean_dec.exit55

41:                                               ; preds = %1
  %42 = load i32, ptr %2, align 4, !tbaa !8
  %43 = icmp sgt i32 %42, 1
  br i1 %43, label %44, label %46, !prof !11

44:                                               ; preds = %41
  %45 = add nsw i32 %42, -1
  store i32 %45, ptr %2, align 4, !tbaa !8
  br label %lean_dec.exit55

46:                                               ; preds = %41
  %.not.i = icmp eq i32 %42, 0
  br i1 %.not.i, label %lean_dec.exit55, label %47

47:                                               ; preds = %46
  tail call void @lean_dec_ref_cold(ptr noundef nonnull %2) #6
  br label %lean_dec.exit55

lean_dec.exit55:                                  ; preds = %47, %46, %44, %1
  %48 = ptrtoint ptr %4 to i64
  %49 = lshr i64 %48, 1
  %50 = trunc i64 %49 to i8
  %51 = and i64 %48, 1
  %.not71 = icmp eq i64 %51, 0
  br i1 %.not71, label %52, label %lean_dec.exit54

52:                                               ; preds = %lean_dec.exit55
  %53 = load i32, ptr %4, align 4, !tbaa !8
  %54 = icmp sgt i32 %53, 1
  br i1 %54, label %55, label %57, !prof !11

55:                                               ; preds = %52
  %56 = add nsw i32 %53, -1
  store i32 %56, ptr %4, align 4, !tbaa !8
  br label %lean_dec.exit54

57:                                               ; preds = %52
  %.not.i56 = icmp eq i32 %53, 0
  br i1 %.not.i56, label %lean_dec.exit54, label %58

58:                                               ; preds = %57
  tail call void @lean_dec_ref_cold(ptr noundef nonnull %4) #6
  br label %lean_dec.exit54

lean_dec.exit54:                                  ; preds = %58, %57, %55, %lean_dec.exit55
  %59 = ptrtoint ptr %6 to i64
  %60 = lshr i64 %59, 1
  %61 = trunc i64 %60 to i8
  %62 = and i64 %59, 1
  %.not72 = icmp eq i64 %62, 0
  br i1 %.not72, label %63, label %lean_dec.exit53

63:                                               ; preds = %lean_dec.exit54
  %64 = load i32, ptr %6, align 4, !tbaa !8
  %65 = icmp sgt i32 %64, 1
  br i1 %65, label %66, label %68, !prof !11

66:                                               ; preds = %63
  %67 = add nsw i32 %64, -1
  store i32 %67, ptr %6, align 4, !tbaa !8
  br label %lean_dec.exit53

68:                                               ; preds = %63
  %.not.i58 = icmp eq i32 %64, 0
  br i1 %.not.i58, label %lean_dec.exit53, label %69

69:                                               ; preds = %68
  tail call void @lean_dec_ref_cold(ptr noundef nonnull %6) #6
  br label %lean_dec.exit53

lean_dec.exit53:                                  ; preds = %69, %68, %66, %lean_dec.exit54
  %70 = getelementptr i8, ptr %22, i64 8
  %.val70 = load i64, ptr %70, align 8, !tbaa !12
  %71 = ptrtoint ptr %22 to i64
  %72 = and i64 %71, 1
  %.not73 = icmp eq i64 %72, 0
  br i1 %.not73, label %73, label %lean_dec.exit52

73:                                               ; preds = %lean_dec.exit53
  %74 = load i32, ptr %22, align 4, !tbaa !8
  %75 = icmp sgt i32 %74, 1
  br i1 %75, label %76, label %78, !prof !11

76:                                               ; preds = %73
  %77 = add nsw i32 %74, -1
  store i32 %77, ptr %22, align 4, !tbaa !8
  br label %lean_dec.exit52

78:                                               ; preds = %73
  %.not.i60 = icmp eq i32 %74, 0
  br i1 %.not.i60, label %lean_dec.exit52, label %79

79:                                               ; preds = %78
  tail call void @lean_dec_ref_cold(ptr noundef nonnull %22) #6
  br label %lean_dec.exit52

lean_dec.exit52:                                  ; preds = %79, %78, %76, %lean_dec.exit53
  %80 = getelementptr i8, ptr %24, i64 8
  %.val = load i64, ptr %80, align 8, !tbaa !12
  %81 = ptrtoint ptr %24 to i64
  %82 = and i64 %81, 1
  %.not74 = icmp eq i64 %82, 0
  br i1 %.not74, label %83, label %lean_dec.exit51

83:                                               ; preds = %lean_dec.exit52
  %84 = load i32, ptr %24, align 4, !tbaa !8
  %85 = icmp sgt i32 %84, 1
  br i1 %85, label %86, label %88, !prof !11

86:                                               ; preds = %83
  %87 = add nsw i32 %84, -1
  store i32 %87, ptr %24, align 4, !tbaa !8
  br label %lean_dec.exit51

88:                                               ; preds = %83
  %.not.i62 = icmp eq i32 %84, 0
  br i1 %.not.i62, label %lean_dec.exit51, label %89

89:                                               ; preds = %88
  tail call void @lean_dec_ref_cold(ptr noundef nonnull %24) #6
  br label %lean_dec.exit51

lean_dec.exit51:                                  ; preds = %89, %88, %86, %lean_dec.exit52
  %90 = tail call ptr @l_Array_forIn_x27Unsafe_loop___at_Lean_Widget_goalToInteractive___spec__4(i8 noundef zeroext %39, i8 noundef zeroext %50, i8 noundef zeroext %61, ptr noundef %8, ptr noundef %10, ptr noundef %12, ptr poison, ptr poison, ptr noundef %18, ptr noundef %20, i64 noundef %.val70, i64 noundef %.val, ptr noundef %26, ptr noundef %28, ptr noundef %30, ptr noundef %32, ptr noundef %34, ptr noundef %36)
  %91 = ptrtoint ptr %20 to i64
  %92 = and i64 %91, 1
  %.not75 = icmp eq i64 %92, 0
  br i1 %.not75, label %93, label %lean_dec.exit50

93:                                               ; preds = %lean_dec.exit51
  %94 = load i32, ptr %20, align 4, !tbaa !8
  %95 = icmp sgt i32 %94, 1
  br i1 %95, label %96, label %98, !prof !11

96:                                               ; preds = %93
  %97 = add nsw i32 %94, -1
  store i32 %97, ptr %20, align 4, !tbaa !8
  br label %lean_dec.exit50

98:                                               ; preds = %93
  %.not.i64 = icmp eq i32 %94, 0
  br i1 %.not.i64, label %lean_dec.exit50, label %99

99:                                               ; preds = %98
  tail call void @lean_dec_ref_cold(ptr noundef nonnull %20) #6
  br label %lean_dec.exit50

lean_dec.exit50:                                  ; preds = %99, %98, %96, %lean_dec.exit51
  %100 = ptrtoint ptr %16 to i64
  %101 = and i64 %100, 1
  %.not76 = icmp eq i64 %101, 0
  br i1 %.not76, label %102, label %lean_dec.exit49

102:                                              ; preds = %lean_dec.exit50
  %103 = load i32, ptr %16, align 4, !tbaa !8
  %104 = icmp sgt i32 %103, 1
  br i1 %104, label %105, label %107, !prof !11

105:                                              ; preds = %102
  %106 = add nsw i32 %103, -1
  store i32 %106, ptr %16, align 4, !tbaa !8
  br label %lean_dec.exit49

107:                                              ; preds = %102
  %.not.i66 = icmp eq i32 %103, 0
  br i1 %.not.i66, label %lean_dec.exit49, label %108

108:                                              ; preds = %107
  tail call void @lean_dec_ref_cold(ptr noundef nonnull %16) #6
  br label %lean_dec.exit49

lean_dec.exit49:                                  ; preds = %108, %107, %105, %lean_dec.exit50
  %109 = ptrtoint ptr %14 to i64
  %110 = and i64 %109, 1
  %.not77 = icmp eq i64 %110, 0
  br i1 %.not77, label %111, label %lean_dec.exit

111:                                              ; preds = %lean_dec.exit49
  %112 = load i32, ptr %14, align 4, !tbaa !8
  %113 = icmp sgt i32 %112, 1
  br i1 %113, label %114, label %116, !prof !11

114:                                              ; preds = %111
  %115 = add nsw i32 %112, -1
  store i32 %115, ptr %14, align 4, !tbaa !8
  br label %lean_dec.exit

116:                                              ; preds = %111
  %.not.i68 = icmp eq i32 %112, 0
  br i1 %.not.i68, label %lean_dec.exit, label %117

117:                                              ; preds = %116
  tail call void @lean_dec_ref_cold(ptr noundef nonnull %14) #6
  br label %lean_dec.exit

lean_dec.exit:                                    ; preds = %117, %116, %114, %lean_dec.exit49
  ret ptr %90
}